target datalayout = "e-m:e-p270:32:32-p271:32:32-p272:64:64-i64:64-i128:128-f80:128-n8:16:32:64-S128"
target triple = "x86_64-pc-linux-gnu"

; Function Attrs: mustprogress nounwind uwtable
define void @_ZN6casadi16SparsityInternal10ldl_colindEPKxPxS3_S3_(ptr noundef %0, ptr noundef %1, ptr noundef %2, ptr noundef %3) #4 align 2 {
  %5 = alloca ptr, align 8
  %6 = alloca ptr, align 8
  %7 = alloca ptr, align 8
  %8 = alloca ptr, align 8
  %9 = alloca i64, align 8
  %10 = alloca ptr, align 8
  %11 = alloca ptr, align 8
  %12 = alloca i64, align 8
  %13 = alloca i64, align 8
  %14 = alloca i64, align 8
  %15 = alloca ptr, align 8
  store ptr %0, ptr %5, align 8
  store ptr %1, ptr %6, align 8
  store ptr %2, ptr %7, align 8
  store ptr %3, ptr %8, align 8
  %16 = load ptr, ptr %5, align 8
  %17 = getelementptr inbounds i64, ptr %16, i64 0
  %18 = load i64, ptr %17, align 8
  store i64 %18, ptr %9, align 8
  %19 = load ptr, ptr %5, align 8
  %20 = getelementptr inbounds i64, ptr %19, i64 2
  store ptr %20, ptr %10, align 8
  %21 = load ptr, ptr %5, align 8
  %22 = getelementptr inbounds i64, ptr %21, i64 2
  %23 = load i64, ptr %9, align 8
  %24 = getelementptr inbounds i64, ptr %22, i64 %23
  %25 = getelementptr inbounds i64, ptr %24, i64 1
  store ptr %25, ptr %11, align 8
  %26 = load ptr, ptr %8, align 8
  store ptr %26, ptr %15, align 8
  %27 = load i64, ptr %9, align 8
  %28 = load ptr, ptr %8, align 8
  %29 = getelementptr inbounds i64, ptr %28, i64 %27
  store ptr %29, ptr %8, align 8
  store i64 0, ptr %13, align 8
  br label %30

30:                                               ; preds = %106, %4
  %31 = load i64, ptr %13, align 8
  %32 = load i64, ptr %9, align 8
  %33 = icmp slt i64 %31, %32
  br i1 %33, label %34, label %109

34:                                               ; preds = %30
  %35 = load ptr, ptr %6, align 8
  %36 = load i64, ptr %13, align 8
  %37 = getelementptr inbounds i64, ptr %35, i64 %36
  store i64 -1, ptr %37, align 8
  %38 = load i64, ptr %13, align 8
  %39 = load ptr, ptr %15, align 8
  %40 = load i64, ptr %13, align 8
  %41 = getelementptr inbounds i64, ptr %39, i64 %40
  store i64 %38, ptr %41, align 8
  %42 = load ptr, ptr %7, align 8
  %43 = load i64, ptr %13, align 8
  %44 = add nsw i64 1, %43
  %45 = getelementptr inbounds i64, ptr %42, i64 %44
  store i64 0, ptr %45, align 8
  %46 = load ptr, ptr %10, align 8
  %47 = load i64, ptr %13, align 8
  %48 = getelementptr inbounds i64, ptr %46, i64 %47
  %49 = load i64, ptr %48, align 8
  store i64 %49, ptr %14, align 8
  br label %50

50:                                               ; preds = %102, %34
  %51 = load i64, ptr %14, align 8
  %52 = load ptr, ptr %10, align 8
  %53 = load i64, ptr %13, align 8
  %54 = add nsw i64 %53, 1
  %55 = getelementptr inbounds i64, ptr %52, i64 %54
  %56 = load i64, ptr %55, align 8
  %57 = icmp slt i64 %51, %56
  br i1 %57, label %58, label %65

58:                                               ; preds = %50
  %59 = load ptr, ptr %11, align 8
  %60 = load i64, ptr %14, align 8
  %61 = getelementptr inbounds i64, ptr %59, i64 %60
  %62 = load i64, ptr %61, align 8
  store i64 %62, ptr %12, align 8
  %63 = load i64, ptr %13, align 8
  %64 = icmp slt i64 %62, %63
  br label %65

65:                                               ; preds = %58, %50
  %66 = phi i1 [ false, %50 ], [ %64, %58 ]
  br i1 %66, label %67, label %105

67:                                               ; preds = %65
  br label %68

68:                                               ; preds = %86, %67
  %69 = load ptr, ptr %15, align 8
  %70 = load i64, ptr %12, align 8
  %71 = getelementptr inbounds i64, ptr %69, i64 %70
  %72 = load i64, ptr %71, align 8
  %73 = load i64, ptr %13, align 8
  %74 = icmp ne i64 %72, %73
  br i1 %74, label %75, label %101

75:                                               ; preds = %68
  %76 = load ptr, ptr %6, align 8
  %77 = load i64, ptr %12, align 8
  %78 = getelementptr inbounds i64, ptr %76, i64 %77
  %79 = load i64, ptr %78, align 8
  %80 = icmp eq i64 %79, -1
  br i1 %80, label %81, label %86

81:                                               ; preds = %75
  %82 = load i64, ptr %13, align 8
  %83 = load ptr, ptr %6, align 8
  %84 = load i64, ptr %12, align 8
  %85 = getelementptr inbounds i64, ptr %83, i64 %84
  store i64 %82, ptr %85, align 8
  br label %86

86:                                               ; preds = %81, %75
  %87 = load ptr, ptr %7, align 8
  %88 = load i64, ptr %12, align 8
  %89 = add nsw i64 1, %88
  %90 = getelementptr inbounds i64, ptr %87, i64 %89
  %91 = load i64, ptr %90, align 8
  %92 = add nsw i64 %91, 1
  store i64 %92, ptr %90, align 8
  %93 = load i64, ptr %13, align 8
  %94 = load ptr, ptr %15, align 8
  %95 = load i64, ptr %12, align 8
  %96 = getelementptr inbounds i64, ptr %94, i64 %95
  store i64 %93, ptr %96, align 8
  %97 = load ptr, ptr %6, align 8
  %98 = load i64, ptr %12, align 8
  %99 = getelementptr inbounds i64, ptr %97, i64 %98
  %100 = load i64, ptr %99, align 8
  store i64 %100, ptr %12, align 8
  br label %68, !llvm.loop !46

101:                                              ; preds = %68
  br label %102

102:                                              ; preds = %101
  %103 = load i64, ptr %14, align 8
  %104 = add nsw i64 %103, 1
  store i64 %104, ptr %14, align 8
  br label %50, !llvm.loop !47

105:                                              ; preds = %65
  br label %106

106:                                              ; preds = %105
  %107 = load i64, ptr %13, align 8
  %108 = add nsw i64 %107, 1
  store i64 %108, ptr %13, align 8
  br label %30, !llvm.loop !48

109:                                              ; preds = %30
  %110 = load ptr, ptr %7, align 8
  %111 = getelementptr inbounds i64, ptr %110, i64 0
  store i64 0, ptr %111, align 8
  store i64 0, ptr %13, align 8
  br label %112

112:                                              ; preds = %127, %109
  %113 = load i64, ptr %13, align 8
  %114 = load i64, ptr %9, align 8
  %115 = icmp slt i64 %113, %114
  br i1 %115, label %116, label %130

116:                                              ; preds = %112
  %117 = load ptr, ptr %7, align 8
  %118 = load i64, ptr %13, align 8
  %119 = getelementptr inbounds i64, ptr %117, i64 %118
  %120 = load i64, ptr %119, align 8
  %121 = load ptr, ptr %7, align 8
  %122 = load i64, ptr %13, align 8
  %123 = add nsw i64 %122, 1
  %124 = getelementptr inbounds i64, ptr %121, i64 %123
  %125 = load i64, ptr %124, align 8
  %126 = add nsw i64 %125, %120
  store i64 %126, ptr %124, align 8
  br label %127

127:                                              ; preds = %116
  %128 = load i64, ptr %13, align 8
  %129 = add nsw i64 %128, 1
  store i64 %129, ptr %13, align 8
  br label %112, !llvm.loop !49

130:                                              ; preds = %112
  ret void
}