; Function Attrs: mustprogress nofree norecurse nosync nounwind memory(write, argmem: readwrite, inaccessiblemem: none) uwtable
define void @_ZN6casadi16SparsityInternal10ldl_colindEPKxPxS3_S3_(ptr nocapture noundef readonly %0, ptr nocapture noundef %1, ptr nocapture noundef %2, ptr nocapture noundef %3) local_unnamed_addr #5 align 2 {
  %5 = load i64, ptr %0, align 8
  %6 = getelementptr inbounds i8, ptr %0, i64 16
  %7 = getelementptr inbounds i64, ptr %6, i64 %5
  %8 = getelementptr inbounds i8, ptr %7, i64 8
  %9 = icmp sgt i64 %5, 0
  br i1 %9, label %.lr.ph60, label %._crit_edge61.thread

._crit_edge61.thread:                             ; preds = %4
  store i64 0, ptr %2, align 8
  br label %._crit_edge65

.lr.ph60:                                         ; preds = %4
  %invariant.gep = getelementptr i8, ptr %2, i64 8
  br label %10

10:                                               ; preds = %.lr.ph60, %.critedge
  %.04958 = phi i64 [ 0, %.lr.ph60 ], [ %13, %.critedge ]
  %11 = getelementptr inbounds i64, ptr %1, i64 %.04958
  store i64 -1, ptr %11, align 8
  %12 = getelementptr inbounds i64, ptr %3, i64 %.04958
  store i64 %.04958, ptr %12, align 8
  %13 = add nuw nsw i64 %.04958, 1
  %14 = getelementptr inbounds i64, ptr %2, i64 %13
  store i64 0, ptr %14, align 8
  %15 = getelementptr inbounds i64, ptr %6, i64 %.04958
  %16 = load i64, ptr %15, align 8
  %17 = getelementptr inbounds i64, ptr %6, i64 %13
  %18 = load i64, ptr %17, align 8
  %19 = icmp slt i64 %16, %18
  br i1 %19, label %.lr.ph56, label %.critedge

.lr.ph56:                                         ; preds = %10, %._crit_edge
  %20 = phi i64 [ %37, %._crit_edge ], [ %18, %10 ]
  %.04854 = phi i64 [ %38, %._crit_edge ], [ %16, %10 ]
  %21 = getelementptr inbounds i64, ptr %8, i64 %.04854
  %22 = load i64, ptr %21, align 8
  %23 = icmp slt i64 %22, %.04958
  br i1 %23, label %.preheader, label %.critedge

.preheader:                                       ; preds = %.lr.ph56
  %24 = getelementptr inbounds i64, ptr %3, i64 %22
  %25 = load i64, ptr %24, align 8
  %.not52 = icmp eq i64 %25, %.04958
  br i1 %.not52, label %._crit_edge, label %.lr.ph

.lr.ph:                                           ; preds = %.preheader, %31
  %26 = phi ptr [ %35, %31 ], [ %24, %.preheader ]
  %.053 = phi i64 [ %34, %31 ], [ %22, %.preheader ]
  %27 = getelementptr inbounds i64, ptr %1, i64 %.053
  %28 = load i64, ptr %27, align 8
  %29 = icmp eq i64 %28, -1
  br i1 %29, label %30, label %31

30:                                               ; preds = %.lr.ph
  store i64 %.04958, ptr %27, align 8
  br label %31

31:                                               ; preds = %30, %.lr.ph
  %gep = getelementptr i64, ptr %invariant.gep, i64 %.053
  %32 = load i64, ptr %gep, align 8
  %33 = add nsw i64 %32, 1
  store i64 %33, ptr %gep, align 8
  store i64 %.04958, ptr %26, align 8
  %34 = load i64, ptr %27, align 8
  %35 = getelementptr inbounds i64, ptr %3, i64 %34
  %36 = load i64, ptr %35, align 8
  %.not = icmp eq i64 %36, %.04958
  br i1 %.not, label %._crit_edge.loopexit, label %.lr.ph, !llvm.loop !36

._crit_edge.loopexit:                             ; preds = %31
  %.pre = load i64, ptr %17, align 8
  br label %._crit_edge

._crit_edge:                                      ; preds = %._crit_edge.loopexit, %.preheader
  %37 = phi i64 [ %.pre, %._crit_edge.loopexit ], [ %20, %.preheader ]
  %38 = add nsw i64 %.04854, 1
  %39 = icmp slt i64 %38, %37
  br i1 %39, label %.lr.ph56, label %.critedge, !llvm.loop !37

.critedge:                                        ; preds = %._crit_edge, %.lr.ph56, %10
  %exitcond.not = icmp eq i64 %13, %5
  br i1 %exitcond.not, label %._crit_edge61, label %10, !llvm.loop !38

._crit_edge61:                                    ; preds = %.critedge
  store i64 0, ptr %2, align 8
  br i1 %9, label %.lr.ph64, label %._crit_edge65

.lr.ph64:                                         ; preds = %._crit_edge61, %.lr.ph64
  %40 = phi i64 [ %44, %.lr.ph64 ], [ 0, %._crit_edge61 ]
  %.162 = phi i64 [ %41, %.lr.ph64 ], [ 0, %._crit_edge61 ]
  %41 = add nuw nsw i64 %.162, 1
  %42 = getelementptr inbounds i64, ptr %2, i64 %41
  %43 = load i64, ptr %42, align 8
  %44 = add nsw i64 %43, %40
  store i64 %44, ptr %42, align 8
  %exitcond66.not = icmp eq i64 %41, %5
  br i1 %exitcond66.not, label %._crit_edge65, label %.lr.ph64, !llvm.loop !39

._crit_edge65:                                    ; preds = %.lr.ph64, %._crit_edge61.thread, %._crit_edge61
  ret void
}